target datalayout = "e-m:e-p270:32:32-p271:32:32-p272:64:64-i64:64-i128:128-f80:128-n8:16:32:64-S128"
target triple = "x86_64-pc-linux-gnu"

%struct.JSMallocState = type { i64, i64, i64, ptr }

@.str.30 = private unnamed_addr constant [13 x i8] c"A %zd -> %p\0A\00", align 1

; Function Attrs: nounwind uwtable
define internal i64 @js_trace_malloc_usable_size(ptr noundef %0) #0 {
  %2 = alloca ptr, align 8
  store ptr %0, ptr %2, align 8
  %3 = load ptr, ptr %2, align 8
  %4 = call i64 @malloc_usable_size(ptr noundef %3) #12
  ret i64 %4
}

; Function Attrs: nounwind uwtable
define internal ptr @js_trace_malloc(ptr noundef %0, i64 noundef %1) #0 {
  %3 = alloca ptr, align 8
  %4 = alloca ptr, align 8
  %5 = alloca i64, align 8
  %6 = alloca ptr, align 8
  store ptr %0, ptr %4, align 8
  store i64 %1, ptr %5, align 8
  %7 = load ptr, ptr %4, align 8
  %8 = getelementptr inbounds %struct.JSMallocState, ptr %7, i32 0, i32 1
  %9 = load i64, ptr %8, align 8
  %10 = load i64, ptr %5, align 8
  %11 = add i64 %9, %10
  %12 = load ptr, ptr %4, align 8
  %13 = getelementptr inbounds %struct.JSMallocState, ptr %12, i32 0, i32 2
  %14 = load i64, ptr %13, align 8
  %15 = icmp ugt i64 %11, %14
  %16 = xor i1 %15, true
  %17 = xor i1 %16, true
  %18 = zext i1 %17 to i32
  %19 = sext i32 %18 to i64
  %20 = icmp ne i64 %19, 0
  br i1 %20, label %21, label %22

21:                                               ; preds = %2
  store ptr null, ptr %3, align 8
  br label %44

22:                                               ; preds = %2
  %23 = load i64, ptr %5, align 8
  %24 = call noalias ptr @malloc(i64 noundef %23) #13
  store ptr %24, ptr %6, align 8
  %25 = load ptr, ptr %4, align 8
  %26 = load i64, ptr %5, align 8
  %27 = load ptr, ptr %6, align 8
  call void (ptr, ptr, ...) @js_trace_malloc_printf(ptr noundef %25, ptr noundef @.str.30, i64 noundef %26, ptr noundef %27)
  %28 = load ptr, ptr %6, align 8
  %29 = icmp ne ptr %28, null
  br i1 %29, label %30, label %42

30:                                               ; preds = %22
  %31 = load ptr, ptr %4, align 8
  %32 = getelementptr inbounds %struct.JSMallocState, ptr %31, i32 0, i32 0
  %33 = load i64, ptr %32, align 8
  %34 = add i64 %33, 1
  store i64 %34, ptr %32, align 8
  %35 = load ptr, ptr %6, align 8
  %36 = call i64 @js_trace_malloc_usable_size(ptr noundef %35)
  %37 = add i64 %36, 8
  %38 = load ptr, ptr %4, align 8
  %39 = getelementptr inbounds %struct.JSMallocState, ptr %38, i32 0, i32 1
  %40 = load i64, ptr %39, align 8
  %41 = add i64 %40, %37
  store i64 %41, ptr %39, align 8
  br label %42

42:                                               ; preds = %30, %22
  %43 = load ptr, ptr %6, align 8
  store ptr %43, ptr %3, align 8
  br label %44

44:                                               ; preds = %42, %21
  %45 = load ptr, ptr %3, align 8
  ret ptr %45
}