; Function Attrs: nounwind uwtable
define internal noundef ptr @js_trace_malloc(ptr nocapture noundef %0, i64 noundef %1) #3 {
  %3 = getelementptr inbounds i8, ptr %0, i64 8
  %4 = load i64, ptr %3, align 8
  %5 = add i64 %4, %1
  %6 = getelementptr inbounds i8, ptr %0, i64 16
  %7 = load i64, ptr %6, align 8
  %8 = icmp ugt i64 %5, %7
  br i1 %8, label %18, label %9

9:                                                ; preds = %2
  %10 = tail call noalias ptr @malloc(i64 noundef %1) #18
  tail call void (ptr, ptr, ...) @js_trace_malloc_printf(ptr noundef nonnull %0, ptr noundef nonnull @.str.30, i64 noundef %1, ptr noundef %10)
  %.not = icmp eq ptr %10, null
  br i1 %.not, label %18, label %11

11:                                               ; preds = %9
  %12 = load i64, ptr %0, align 8
  %13 = add i64 %12, 1
  store i64 %13, ptr %0, align 8
  %14 = tail call i64 @malloc_usable_size(ptr noundef nonnull %10) #16
  %15 = add i64 %14, 8
  %16 = load i64, ptr %3, align 8
  %17 = add i64 %15, %16
  store i64 %17, ptr %3, align 8
  br label %18

18:                                               ; preds = %9, %11, %2
  %.0 = phi ptr [ null, %2 ], [ %10, %11 ], [ null, %9 ]
  ret ptr %.0
}